; Function Attrs: mustprogress uwtable
define internal fastcc void @_ZN12_GLOBAL__N_12idENSt7__cxx1112basic_stringIcSt11char_traitsIcESaIcEEE(ptr dead_on_unwind noalias writable align 8 %0, ptr noundef nonnull %1) unnamed_addr #4 personality ptr @__gxx_personality_v0 {
  %3 = alloca %"class.std::__cxx11::basic_string", align 8
  %4 = alloca %"class.std::__cxx11::basic_string", align 8
  %5 = alloca %"class.std::allocator", align 1
  %6 = alloca %"class.std::allocator", align 1
  %7 = tail call noundef ptr @_ZNKSt7__cxx1112basic_stringIcSt11char_traitsIcESaIcEE5c_strEv(ptr noundef nonnull align 8 dereferenceable(32) %1) #18
  %8 = load i8, ptr %7, align 1
  %9 = icmp eq i8 %8, 92
  %spec.select.idx = zext i1 %9 to i64
  %spec.select = getelementptr inbounds i8, ptr %7, i64 %spec.select.idx
  %10 = load i8, ptr %spec.select, align 1
  %11 = add i8 %10, -48
  %or.cond = icmp ult i8 %11, 10
  %.not46 = icmp eq i8 %10, 0
  br i1 %.not46, label %._crit_edge.thread, label %.lr.ph

.lr.ph:                                           ; preds = %2, %18
  %indvars.iv = phi i64 [ %indvars.iv.next, %18 ], [ 0, %2 ]
  %12 = phi i8 [ %20, %18 ], [ %10, %2 ]
  %13 = add i8 %12, -48
  %or.cond40 = icmp ult i8 %13, 10
  %14 = add i8 %12, -97
  %or.cond41 = icmp ult i8 %14, 26
  %or.cond45 = or i1 %or.cond40, %or.cond41
  br i1 %or.cond45, label %18, label %15

15:                                               ; preds = %.lr.ph
  %16 = add i8 %12, -65
  %or.cond42 = icmp ult i8 %16, 26
  %17 = icmp eq i8 %12, 95
  %or.cond44 = or i1 %17, %or.cond42
  br i1 %or.cond44, label %18, label %.critedge

18:                                               ; preds = %15, %.lr.ph
  %indvars.iv.next = add nuw nsw i64 %indvars.iv, 1
  %19 = getelementptr inbounds i8, ptr %spec.select, i64 %indvars.iv.next
  %20 = load i8, ptr %19, align 1
  %.not = icmp eq i8 %20, 0
  br i1 %.not, label %._crit_edge, label %.lr.ph, !llvm.loop !158

._crit_edge:                                      ; preds = %18
  br i1 %or.cond, label %.critedge, label %._crit_edge.thread

.critedge:                                        ; preds = %15, %._crit_edge
  call void @_ZNSaIcEC1Ev(ptr noundef nonnull align 1 dereferenceable(1) %5) #18
  invoke void @_ZNSt7__cxx1112basic_stringIcSt11char_traitsIcESaIcEEC1EPKcRKS3_(ptr noundef nonnull align 8 dereferenceable(32) %4, ptr noundef nonnull %spec.select, ptr noundef nonnull align 1 dereferenceable(1) %5)
          to label %21 unwind label %26

21:                                               ; preds = %.critedge
  %22 = invoke noundef nonnull align 8 dereferenceable(32) ptr @_ZNSt7__cxx1112basic_stringIcSt11char_traitsIcESaIcEE6insertEmPKc(ptr noundef nonnull align 8 dereferenceable(32) %4, i64 noundef 0, ptr noundef nonnull @.str.117)
          to label %23 unwind label %28

23:                                               ; preds = %21
  call void @_ZNSt7__cxx1112basic_stringIcSt11char_traitsIcESaIcEEC1EOS4_(ptr noundef nonnull align 8 dereferenceable(32) %3, ptr noundef nonnull align 8 dereferenceable(32) %22) #18
  %24 = invoke noundef nonnull align 8 dereferenceable(32) ptr @_ZNSt7__cxx1112basic_stringIcSt11char_traitsIcESaIcEE6appendEPKc(ptr noundef nonnull align 8 dereferenceable(32) %3, ptr noundef nonnull @.str.118)
          to label %25 unwind label %30

25:                                               ; preds = %23
  call void @_ZNSt7__cxx1112basic_stringIcSt11char_traitsIcESaIcEEC1EOS4_(ptr noundef nonnull align 8 dereferenceable(32) %0, ptr noundef nonnull align 8 dereferenceable(32) %24) #18
  call void @_ZNSt7__cxx1112basic_stringIcSt11char_traitsIcESaIcEED1Ev(ptr noundef nonnull align 8 dereferenceable(32) %3) #18
  call void @_ZNSt7__cxx1112basic_stringIcSt11char_traitsIcESaIcEED1Ev(ptr noundef nonnull align 8 dereferenceable(32) %4) #18
  br label %35

26:                                               ; preds = %.critedge
  %27 = landingpad { ptr, i32 }
          cleanup
  br label %36

28:                                               ; preds = %21
  %29 = landingpad { ptr, i32 }
          cleanup
  br label %32

30:                                               ; preds = %23
  %31 = landingpad { ptr, i32 }
          cleanup
  call void @_ZNSt7__cxx1112basic_stringIcSt11char_traitsIcESaIcEED1Ev(ptr noundef nonnull align 8 dereferenceable(32) %3) #18
  br label %32

32:                                               ; preds = %30, %28
  %.pn = phi { ptr, i32 } [ %31, %30 ], [ %29, %28 ]
  call void @_ZNSt7__cxx1112basic_stringIcSt11char_traitsIcESaIcEED1Ev(ptr noundef nonnull align 8 dereferenceable(32) %4) #18
  br label %36

._crit_edge.thread:                               ; preds = %2, %._crit_edge
  call void @_ZNSaIcEC1Ev(ptr noundef nonnull align 1 dereferenceable(1) %6) #18
  invoke void @_ZNSt7__cxx1112basic_stringIcSt11char_traitsIcESaIcEEC1EPKcRKS3_(ptr noundef nonnull align 8 dereferenceable(32) %0, ptr noundef nonnull %spec.select, ptr noundef nonnull align 1 dereferenceable(1) %6)
          to label %35 unwind label %33

33:                                               ; preds = %._crit_edge.thread
  %34 = landingpad { ptr, i32 }
          cleanup
  br label %36

35:                                               ; preds = %._crit_edge.thread, %25
  %.sink = phi ptr [ %5, %25 ], [ %6, %._crit_edge.thread ]
  call void @_ZNSaIcED1Ev(ptr noundef nonnull align 1 dereferenceable(1) %.sink) #18
  ret void

36:                                               ; preds = %26, %32, %33
  %.sink48 = phi ptr [ %6, %33 ], [ %5, %32 ], [ %5, %26 ]
  %.pn.pn.pn = phi { ptr, i32 } [ %34, %33 ], [ %.pn, %32 ], [ %27, %26 ]
  call void @_ZNSaIcED1Ev(ptr noundef nonnull align 1 dereferenceable(1) %.sink48) #18
  resume { ptr, i32 } %.pn.pn.pn
}